target datalayout = "e-m:e-p270:32:32-p271:32:32-p272:64:64-i64:64-i128:128-f80:128-n8:16:32:64-S128"
target triple = "x86_64-pc-linux-gnu"

@.str.36 = private unnamed_addr constant [12 x i8] c"#<Class:%p>\00", align 1
@.str.37 = private unnamed_addr constant [13 x i8] c"#<Module:%p>\00", align 1
@.str.38 = private unnamed_addr constant [11 x i8] c"#<%li\0B:%p>\00", align 1

; Function Attrs: nounwind sspstrong uwtable
define internal i64 @make_temporary_path(i64 noundef %0, i64 noundef %1) #0 {
  %3 = alloca i64, align 8
  %4 = alloca i64, align 8
  %5 = alloca i64, align 8
  store i64 %0, ptr %3, align 8, !tbaa !14
  store i64 %1, ptr %4, align 8, !tbaa !14
  call void @llvm.lifetime.start.p0(i64 8, ptr %5) #30
  %6 = load i64, ptr %4, align 8, !tbaa !14
  switch i64 %6, label %15 [
    i64 4, label %7
    i64 0, label %11
  ]

7:                                                ; preds = %2
  %8 = load i64, ptr %3, align 8, !tbaa !14
  %9 = inttoptr i64 %8 to ptr
  %10 = call i64 (ptr, ...) @rb_sprintf(ptr noundef @.str.36, ptr noundef %9)
  store i64 %10, ptr %5, align 8, !tbaa !14
  br label %20

11:                                               ; preds = %2
  %12 = load i64, ptr %3, align 8, !tbaa !14
  %13 = inttoptr i64 %12 to ptr
  %14 = call i64 (ptr, ...) @rb_sprintf(ptr noundef @.str.37, ptr noundef %13)
  store i64 %14, ptr %5, align 8, !tbaa !14
  br label %20

15:                                               ; preds = %2
  %16 = load i64, ptr %4, align 8, !tbaa !14
  %17 = load i64, ptr %3, align 8, !tbaa !14
  %18 = inttoptr i64 %17 to ptr
  %19 = call i64 (ptr, ...) @rb_sprintf(ptr noundef @.str.38, i64 noundef %16, ptr noundef %18)
  store i64 %19, ptr %5, align 8, !tbaa !14
  br label %20

20:                                               ; preds = %15, %11, %7
  %21 = load i64, ptr %5, align 8, !tbaa !14
  call void @rb_obj_freeze_inline(i64 noundef %21)
  %22 = load i64, ptr %5, align 8, !tbaa !14
  call void @llvm.lifetime.end.p0(i64 8, ptr %5) #30
  ret i64 %22
}