; Function Attrs: nounwind sspstrong uwtable
define internal noundef i64 @make_temporary_path(i64 noundef %0, i64 noundef %1) #0 {
  %3 = inttoptr i64 %0 to ptr
  switch i64 %1, label %8 [
    i64 4, label %4
    i64 0, label %6
  ]

4:                                                ; preds = %2
  %5 = tail call i64 (ptr, ...) @rb_sprintf(ptr noundef nonnull @.str.36, ptr noundef %3) #27
  br label %10

6:                                                ; preds = %2
  %7 = tail call i64 (ptr, ...) @rb_sprintf(ptr noundef nonnull @.str.37, ptr noundef %3) #27
  br label %10

8:                                                ; preds = %2
  %9 = tail call i64 (ptr, ...) @rb_sprintf(ptr noundef nonnull @.str.38, i64 noundef %1, ptr noundef %3) #27
  br label %10

10:                                               ; preds = %8, %6, %4
  %.0 = phi i64 [ %9, %8 ], [ %7, %6 ], [ %5, %4 ]
  tail call void @rb_obj_freeze_inline(i64 noundef %.0)
  ret i64 %.0
}